target datalayout = "e-m:e-p270:32:32-p271:32:32-p272:64:64-i64:64-i128:128-f80:128-n8:16:32:64-S128"
target triple = "x86_64-pc-linux-gnu"

%struct.evp_cipher_ctx_st = type { ptr, ptr, i32, i32, [16 x i8], [16 x i8], [32 x i8], i32, ptr, i32, i32, i64, ptr, i32, i32, [32 x i8], i64, ptr, ptr }

; Function Attrs: nounwind uwtable
define i32 @EVP_DecryptFinal(ptr noundef %0, ptr noundef %1, ptr noundef %2) #0 {
  %4 = alloca ptr, align 8
  %5 = alloca ptr, align 8
  %6 = alloca ptr, align 8
  %7 = alloca i32, align 4
  store ptr %0, ptr %4, align 8, !tbaa !3
  store ptr %1, ptr %5, align 8, !tbaa !32
  store ptr %2, ptr %6, align 8, !tbaa !66
  call void @llvm.lifetime.start.p0(i64 4, ptr %7) #9
  %8 = load ptr, ptr %4, align 8, !tbaa !3
  %9 = load ptr, ptr %5, align 8, !tbaa !32
  %10 = load ptr, ptr %6, align 8, !tbaa !66
  %11 = call i32 @EVP_DecryptFinal_ex(ptr noundef %8, ptr noundef %9, ptr noundef %10)
  store i32 %11, ptr %7, align 4, !tbaa !29
  %12 = load i32, ptr %7, align 4, !tbaa !29
  call void @llvm.lifetime.end.p0(i64 4, ptr %7) #9
  ret i32 %12
}

; Function Attrs: nounwind uwtable
define i32 @EVP_EncryptFinal(ptr noundef %0, ptr noundef %1, ptr noundef %2) #0 {
  %4 = alloca ptr, align 8
  %5 = alloca ptr, align 8
  %6 = alloca ptr, align 8
  %7 = alloca i32, align 4
  store ptr %0, ptr %4, align 8, !tbaa !3
  store ptr %1, ptr %5, align 8, !tbaa !32
  store ptr %2, ptr %6, align 8, !tbaa !66
  call void @llvm.lifetime.start.p0(i64 4, ptr %7) #9
  %8 = load ptr, ptr %4, align 8, !tbaa !3
  %9 = load ptr, ptr %5, align 8, !tbaa !32
  %10 = load ptr, ptr %6, align 8, !tbaa !66
  %11 = call i32 @EVP_EncryptFinal_ex(ptr noundef %8, ptr noundef %9, ptr noundef %10)
  store i32 %11, ptr %7, align 4, !tbaa !29
  %12 = load i32, ptr %7, align 4, !tbaa !29
  call void @llvm.lifetime.end.p0(i64 4, ptr %7) #9
  ret i32 %12
}

; Function Attrs: nounwind uwtable
define i32 @EVP_CipherFinal(ptr noundef %0, ptr noundef %1, ptr noundef %2) #0 {
  %4 = alloca i32, align 4
  %5 = alloca ptr, align 8
  %6 = alloca ptr, align 8
  %7 = alloca ptr, align 8
  store ptr %0, ptr %5, align 8, !tbaa !3
  store ptr %1, ptr %6, align 8, !tbaa !32
  store ptr %2, ptr %7, align 8, !tbaa !66
  %8 = load ptr, ptr %5, align 8, !tbaa !3
  %9 = getelementptr inbounds nuw %struct.evp_cipher_ctx_st, ptr %8, i32 0, i32 2
  %10 = load i32, ptr %9, align 8, !tbaa !36
  %11 = icmp ne i32 %10, 0
  br i1 %11, label %12, label %17

12:                                               ; preds = %3
  %13 = load ptr, ptr %5, align 8, !tbaa !3
  %14 = load ptr, ptr %6, align 8, !tbaa !32
  %15 = load ptr, ptr %7, align 8, !tbaa !66
  %16 = call i32 @EVP_EncryptFinal(ptr noundef %13, ptr noundef %14, ptr noundef %15)
  store i32 %16, ptr %4, align 4
  br label %22

17:                                               ; preds = %3
  %18 = load ptr, ptr %5, align 8, !tbaa !3
  %19 = load ptr, ptr %6, align 8, !tbaa !32
  %20 = load ptr, ptr %7, align 8, !tbaa !66
  %21 = call i32 @EVP_DecryptFinal(ptr noundef %18, ptr noundef %19, ptr noundef %20)
  store i32 %21, ptr %4, align 4
  br label %22

22:                                               ; preds = %17, %12
  %23 = load i32, ptr %4, align 4
  ret i32 %23
}